; Function Attrs: nounwind uwtable
define internal i32 @filter_frame(ptr noundef readonly captures(none) %0, ptr noundef %1) #0 {
  %3 = getelementptr inbounds nuw i8, ptr %0, i64 16
  %4 = load ptr, ptr %3, align 8, !tbaa !31
  %5 = getelementptr inbounds nuw i8, ptr %4, i64 72
  %6 = load ptr, ptr %5, align 8, !tbaa !32
  %7 = getelementptr inbounds nuw i8, ptr %6, i64 48
  %8 = load ptr, ptr %7, align 8, !tbaa !43
  %9 = getelementptr inbounds nuw i8, ptr %1, i64 108
  %10 = load i32, ptr %9, align 4, !tbaa !45
  %11 = tail call i32 @ff_filter_get_nb_threads(ptr noundef %4) #6
  %. = tail call i32 @llvm.smin.i32(i32 %10, i32 %11)
  %12 = tail call i32 @ff_filter_execute(ptr noundef %4, ptr noundef %8, ptr noundef %1, ptr noundef null, i32 noundef %.) #5
  %.not = icmp eq i32 %12, 0
  br i1 %.not, label %13, label %18

13:                                               ; preds = %2
  %14 = getelementptr inbounds nuw i8, ptr %4, i64 56
  %15 = load ptr, ptr %14, align 8, !tbaa !51
  %16 = load ptr, ptr %15, align 8, !tbaa !20
  %17 = tail call i32 @ff_filter_frame(ptr noundef %16, ptr noundef nonnull %1) #5
  br label %18

18:                                               ; preds = %2, %13
  %.0 = phi i32 [ %17, %13 ], [ %12, %2 ]
  ret i32 %.0
}